; ModuleID = 'source-C-CXX/55/676.c'
source_filename = "source-C-CXX/55/676.c"
target datalayout = "e-m:e-p270:32:32-p271:32:32-p272:64:64-i64:64-f80:128-n8:16:32:64-S128"
target triple = "x86_64-pc-linux-gnu"

@.str = private unnamed_addr constant [3 x i8] c"%d\00", align 1
@.str.1 = private unnamed_addr constant [4 x i8] c"%d\0A\00", align 1

; Function Attrs: nofree nounwind sspstrong uwtable
define dso_local void @main() local_unnamed_addr #0 {
  %1 = alloca i32, align 4
  %2 = bitcast i32* %1 to i8*
  call void @llvm.lifetime.start.p0i8(i64 4, i8* nonnull %2) #3
  %3 = call i32 (i8*, ...) @__isoc99_scanf(i8* getelementptr inbounds ([3 x i8], [3 x i8]* @.str, i64 0, i64 0), i32* nonnull %1)
  %4 = load i32, i32* %1, align 4, !tbaa !5
  %5 = srem i32 %4, 10000
  %6 = sdiv i32 %4, 10000
  %7 = srem i32 %4, 1000
  %8 = srem i32 %4, 100
  %9 = srem i32 %4, 10
  %10 = icmp sgt i32 %4, 9999
  br i1 %10, label %20, label %11

11:                                               ; preds = %0
  %12 = icmp sgt i32 %5, 999
  br i1 %12, label %20, label %13

13:                                               ; preds = %11
  %14 = icmp sgt i32 %7, 99
  br i1 %14, label %20, label %15

15:                                               ; preds = %13
  %16 = icmp sgt i32 %8, 9
  br i1 %16, label %20, label %17

17:                                               ; preds = %15
  %18 = icmp sgt i32 %9, 0
  %19 = select i1 %18, i32 10000, i32 100000
  br label %20

20:                                               ; preds = %17, %15, %13, %11, %0
  %21 = phi i32 [ 1, %0 ], [ 10, %11 ], [ 100, %13 ], [ 1000, %15 ], [ %19, %17 ]
  %22 = trunc i32 %8 to i8
  %23 = sdiv i8 %22, 10
  %24 = sext i8 %23 to i32
  %25 = trunc i32 %5 to i16
  %26 = sdiv i16 %25, 1000
  %27 = mul nsw i16 %26, 10
  %28 = sext i16 %27 to i32
  %29 = trunc i32 %7 to i16
  %30 = srem i16 %29, 100
  %31 = sub nsw i16 0, %30
  %32 = sext i16 %31 to i32
  %33 = mul nsw i32 %24, 1000
  %34 = mul nsw i32 %9, 10000
  %35 = add nsw i32 %6, %7
  %36 = add nsw i32 %35, %34
  %37 = add nsw i32 %36, %32
  %38 = add nsw i32 %37, %28
  %39 = add nsw i32 %38, %33
  %40 = sdiv i32 %39, %21
  %41 = call i32 (i8*, ...) @printf(i8* nonnull dereferenceable(1) getelementptr inbounds ([4 x i8], [4 x i8]* @.str.1, i64 0, i64 0), i32 %40)
  call void @llvm.lifetime.end.p0i8(i64 4, i8* nonnull %2) #3
  ret void
}

; Function Attrs: argmemonly mustprogress nofree nosync nounwind willreturn
declare void @llvm.lifetime.start.p0i8(i64 immarg, i8* nocapture) #1

; Function Attrs: nofree nounwind
declare noundef i32 @__isoc99_scanf(i8* nocapture noundef readonly, ...) local_unnamed_addr #2

; Function Attrs: nofree nounwind
declare noundef i32 @printf(i8* nocapture noundef readonly, ...) local_unnamed_addr #2

; Function Attrs: argmemonly mustprogress nofree nosync nounwind willreturn
declare void @llvm.lifetime.end.p0i8(i64 immarg, i8* nocapture) #1


!llvm.module.flags = !{!0, !1, !2, !3}
!llvm.ident = !{!4}

!0 = !{i32 1, !"wchar_size", i32 4}
!1 = !{i32 7, !"PIC Level", i32 2}
!2 = !{i32 7, !"PIE Level", i32 2}
!3 = !{i32 7, !"uwtable", i32 1}
!4 = !{!"clang version 13.0.0"}
!5 = !{!6, !6, i64 0}
!6 = !{!"int", !7, i64 0}
!7 = !{!"omnipotent char", !8, i64 0}
!8 = !{!"Simple C/C++ TBAA"}
